target datalayout = "e-m:e-p270:32:32-p271:32:32-p272:64:64-i64:64-i128:128-f80:128-n8:16:32:64-S128"
target triple = "x86_64-pc-linux-gnu"

%struct.Int = type { %struct.Int128_, i32 }
%struct.Int128_ = type { i64, i64 }
%struct.ExprConst = type { i16, %union.anon }
%union.anon = type { %struct.Int }
%struct.Float = type { double, i32 }

@.str = private unnamed_addr constant [36 x i8] c"FATAL ERROR %s -> in %s @ in %s:%d \00", align 1
@.str.1 = private unnamed_addr constant [22 x i8] c"Should be unreachable\00", align 1
@.str.2 = private unnamed_addr constant [107 x i8] c"generated/home/dtcxzyw/WorkSpace/Projects/compilers/llvm-opt-benchmark/bench/c3c/c3c/src/compiler/number.c\00", align 1
@__func__.expr_const_float_fits_type = private unnamed_addr constant [27 x i8] c"expr_const_float_fits_type\00", align 1

; Function Attrs: nounwind uwtable
define dso_local zeroext i1 @expr_const_float_fits_type(ptr noundef %0, i32 noundef %1) #0 {
  %3 = alloca i1, align 1
  %4 = alloca ptr, align 8
  %5 = alloca i32, align 4
  %6 = alloca double, align 8
  %7 = alloca double, align 8
  store ptr %0, ptr %4, align 8
  store i32 %1, ptr %5, align 4
  %8 = load i32, ptr %5, align 4
  switch i32 %8, label %14 [
    i32 13, label %9
    i32 15, label %10
    i32 16, label %11
    i32 17, label %12
    i32 2, label %13
  ]

9:                                                ; preds = %2
  store double 6.550400e+04, ptr %6, align 8
  store double 6.550400e+04, ptr %7, align 8
  br label %17

10:                                               ; preds = %2
  store double 0x47EFFFFFE0000000, ptr %6, align 8
  store double 0x47EFFFFFE0000000, ptr %7, align 8
  br label %17

11:                                               ; preds = %2
  store double 0x7FEFFFFFFFFFFFFF, ptr %6, align 8
  store double 0x7FEFFFFFFFFFFFFF, ptr %7, align 8
  br label %17

12:                                               ; preds = %2
  store i1 true, ptr %3, align 1
  br label %34

13:                                               ; preds = %2
  store i1 true, ptr %3, align 1
  br label %34

14:                                               ; preds = %2
  br label %15

15:                                               ; preds = %14
  call void (ptr, ...) @error_exit(ptr noundef @.str, ptr noundef @.str.1, ptr noundef @__func__.expr_const_float_fits_type, ptr noundef @.str.2, i32 noundef 173) #5
  unreachable

16:                                               ; No predecessors!
  br label %17

17:                                               ; preds = %16, %11, %10, %9
  %18 = load ptr, ptr %4, align 8
  %19 = getelementptr inbounds %struct.ExprConst, ptr %18, i32 0, i32 1
  %20 = getelementptr inbounds %struct.Float, ptr %19, i32 0, i32 0
  %21 = load double, ptr %20, align 8
  %22 = load double, ptr %7, align 8
  %23 = fneg double %22
  %24 = fcmp oge double %21, %23
  br i1 %24, label %25, label %32

25:                                               ; preds = %17
  %26 = load ptr, ptr %4, align 8
  %27 = getelementptr inbounds %struct.ExprConst, ptr %26, i32 0, i32 1
  %28 = getelementptr inbounds %struct.Float, ptr %27, i32 0, i32 0
  %29 = load double, ptr %28, align 8
  %30 = load double, ptr %6, align 8
  %31 = fcmp ole double %29, %30
  br label %32

32:                                               ; preds = %25, %17
  %33 = phi i1 [ false, %17 ], [ %31, %25 ]
  store i1 %33, ptr %3, align 1
  br label %34

34:                                               ; preds = %32, %13, %12
  %35 = load i1, ptr %3, align 1
  ret i1 %35
}