; Function Attrs: nounwind uwtable
define dso_local zeroext i1 @expr_const_float_fits_type(ptr nocapture noundef readonly %0, i32 noundef %1) local_unnamed_addr #0 {
  switch i32 %1, label %5 [
    i32 13, label %6
    i32 15, label %3
    i32 16, label %4
    i32 17, label %13
    i32 2, label %13
  ]

3:                                                ; preds = %2
  br label %6

4:                                                ; preds = %2
  br label %6

5:                                                ; preds = %2
  tail call void (ptr, ...) @error_exit(ptr noundef nonnull @.str, ptr noundef nonnull @.str.1, ptr noundef nonnull @__func__.expr_const_float_fits_type, ptr noundef nonnull @.str.2, i32 noundef 173) #5
  unreachable

6:                                                ; preds = %2, %4, %3
  %.0 = phi double [ 0x7FEFFFFFFFFFFFFF, %4 ], [ 0x47EFFFFFE0000000, %3 ], [ 6.550400e+04, %2 ]
  %7 = getelementptr inbounds i8, ptr %0, i64 8
  %8 = load double, ptr %7, align 8
  %9 = fneg double %.0
  %10 = fcmp oge double %8, %9
  %11 = fcmp ole double %8, %.0
  %12 = and i1 %10, %11
  br label %13

13:                                               ; preds = %2, %2, %6
  %.06 = phi i1 [ %12, %6 ], [ true, %2 ], [ true, %2 ]
  ret i1 %.06
}